; Function Attrs: nounwind uwtable
define ptr @l_Lean_Elab_Command_elabInductive(ptr noundef %0, ptr noundef %1, ptr noundef %2, ptr noundef %3, ptr noundef %4) local_unnamed_addr #1 {
  tail call void @lean_inc_heartbeat() #5
  %6 = tail call noalias ptr @mi_malloc_small(i64 noundef 24) #5
  %7 = icmp eq ptr %6, null
  br i1 %7, label %8, label %lean_alloc_ctor.exit

8:                                                ; preds = %5
  tail call void @lean_internal_panic_out_of_memory() #6
  unreachable

lean_alloc_ctor.exit:                             ; preds = %5
  %9 = getelementptr inbounds nuw i8, ptr %6, i64 4
  store i32 1, ptr %6, align 4, !tbaa !8
  store i32 131096, ptr %9, align 4
  %10 = getelementptr inbounds nuw i8, ptr %6, i64 8
  store ptr %0, ptr %10, align 8, !tbaa !12
  %11 = getelementptr inbounds nuw i8, ptr %6, i64 16
  store ptr %1, ptr %11, align 8, !tbaa !12
  tail call void @lean_inc_heartbeat() #5
  %12 = tail call noalias ptr @mi_malloc_small(i64 noundef 24) #5
  %13 = icmp eq ptr %12, null
  br i1 %13, label %14, label %lean_alloc_ctor.exit14

14:                                               ; preds = %lean_alloc_ctor.exit
  tail call void @lean_internal_panic_out_of_memory() #6
  unreachable

lean_alloc_ctor.exit14:                           ; preds = %lean_alloc_ctor.exit
  %15 = getelementptr inbounds nuw i8, ptr %12, i64 4
  store i32 1, ptr %12, align 4, !tbaa !8
  store i32 16908312, ptr %15, align 4
  %16 = getelementptr inbounds nuw i8, ptr %12, i64 8
  store ptr %6, ptr %16, align 8, !tbaa !12
  %17 = getelementptr inbounds nuw i8, ptr %12, i64 16
  store ptr inttoptr (i64 1 to ptr), ptr %17, align 8, !tbaa !12
  %18 = tail call ptr @lean_array_mk(ptr noundef nonnull %12) #5
  %19 = tail call ptr @l_Lean_Elab_Command_elabInductives(ptr noundef %18, ptr noundef %2, ptr noundef %3, ptr noundef %4)
  ret ptr %19
}